; ModuleID = '26/14.cpp'
source_filename = "26/14.cpp"
target datalayout = "e-m:e-p270:32:32-p271:32:32-p272:64:64-i64:64-f80:128-n8:16:32:64-S128"
target triple = "x86_64-pc-linux-gnu"

%"class.std::ios_base::Init" = type { i8 }
%"class.std::basic_istream" = type { i32 (...)**, i64, %"class.std::basic_ios" }
%"class.std::basic_ios" = type { %"class.std::ios_base", %"class.std::basic_ostream"*, i8, i8, %"class.std::basic_streambuf"*, %"class.std::ctype"*, %"class.std::num_put"*, %"class.std::num_get"* }
%"class.std::ios_base" = type { i32 (...)**, i64, i64, i32, i32, i32, %"struct.std::ios_base::_Callback_list"*, %"struct.std::ios_base::_Words", [8 x %"struct.std::ios_base::_Words"], i32, %"struct.std::ios_base::_Words"*, %"class.std::locale" }
%"struct.std::ios_base::_Callback_list" = type { %"struct.std::ios_base::_Callback_list"*, void (i32, %"class.std::ios_base"*, i32)*, i32, i32 }
%"struct.std::ios_base::_Words" = type { i8*, i64 }
%"class.std::locale" = type { %"class.std::locale::_Impl"* }
%"class.std::locale::_Impl" = type { i32, %"class.std::locale::facet"**, i64, %"class.std::locale::facet"**, i8** }
%"class.std::locale::facet" = type <{ i32 (...)**, i32, [4 x i8] }>
%"class.std::basic_ostream" = type { i32 (...)**, %"class.std::basic_ios" }
%"class.std::basic_streambuf" = type { i32 (...)**, i8*, i8*, i8*, i8*, i8*, i8*, %"class.std::locale" }
%"class.std::ctype" = type <{ %"class.std::locale::facet.base", [4 x i8], %struct.__locale_struct*, i8, [7 x i8], i32*, i32*, i16*, i8, [256 x i8], [256 x i8], i8, [6 x i8] }>
%"class.std::locale::facet.base" = type <{ i32 (...)**, i32 }>
%struct.__locale_struct = type { [13 x %struct.__locale_data*], i16*, i32*, i32*, [13 x i8*] }
%struct.__locale_data = type opaque
%"class.std::num_put" = type { %"class.std::locale::facet.base", [4 x i8] }
%"class.std::num_get" = type { %"class.std::locale::facet.base", [4 x i8] }

@_ZStL8__ioinit = internal global %"class.std::ios_base::Init" zeroinitializer, align 1
@__dso_handle = external hidden global i8
@_ZSt3cin = external dso_local global %"class.std::basic_istream", align 8
@_ZSt4cout = external dso_local global %"class.std::basic_ostream", align 8
@llvm.global_ctors = appending global [1 x { i32, void ()*, i8* }] [{ i32, void ()*, i8* } { i32 65535, void ()* @_GLOBAL__sub_I_14.cpp, i8* null }]

; Function Attrs: noinline uwtable
define internal void @__cxx_global_var_init() #0 section ".text.startup" {
  call void @_ZNSt8ios_base4InitC1Ev(%"class.std::ios_base::Init"* @_ZStL8__ioinit)
  %1 = call i32 @__cxa_atexit(void (i8*)* bitcast (void (%"class.std::ios_base::Init"*)* @_ZNSt8ios_base4InitD1Ev to void (i8*)*), i8* getelementptr inbounds (%"class.std::ios_base::Init", %"class.std::ios_base::Init"* @_ZStL8__ioinit, i32 0, i32 0), i8* @__dso_handle) #3
  ret void
}

declare dso_local void @_ZNSt8ios_base4InitC1Ev(%"class.std::ios_base::Init"*) unnamed_addr #1

; Function Attrs: nounwind
declare dso_local void @_ZNSt8ios_base4InitD1Ev(%"class.std::ios_base::Init"*) unnamed_addr #2

; Function Attrs: nounwind
declare dso_local i32 @__cxa_atexit(void (i8*)*, i8*, i8*) #3

; Function Attrs: noinline norecurse uwtable
define dso_local i32 @main() #4 {
  %1 = alloca i32, align 4
  %2 = alloca i8, align 1
  %3 = alloca i8, align 1
  %4 = alloca i8, align 1
  %5 = alloca [100 x i8], align 16
  store i32 0, i32* %1, align 4
  store i8 0, i8* %4, align 1
  store i8 0, i8* %2, align 1
  br label %6

6:                                                ; preds = %30, %0
  %7 = load i8, i8* %2, align 1
  %8 = sext i8 %7 to i32
  %9 = load i8, i8* %4, align 1
  %10 = sext i8 %9 to i32
  %11 = icmp sle i32 %8, %10
  br i1 %11, label %12, label %33

12:                                               ; preds = %6
  %13 = call i32 @_ZNSi3getEv(%"class.std::basic_istream"* @_ZSt3cin)
  %14 = trunc i32 %13 to i8
  %15 = load i8, i8* %2, align 1
  %16 = sext i8 %15 to i64
  %17 = getelementptr inbounds [100 x i8], [100 x i8]* %5, i64 0, i64 %16
  store i8 %14, i8* %17, align 1
  %18 = load i8, i8* %4, align 1
  %19 = sext i8 %18 to i32
  %20 = add nsw i32 %19, 1
  %21 = trunc i32 %20 to i8
  store i8 %21, i8* %4, align 1
  %22 = load i8, i8* %2, align 1
  %23 = sext i8 %22 to i64
  %24 = getelementptr inbounds [100 x i8], [100 x i8]* %5, i64 0, i64 %23
  %25 = load i8, i8* %24, align 1
  %26 = sext i8 %25 to i32
  %27 = icmp eq i32 %26, 10
  br i1 %27, label %28, label %29

28:                                               ; preds = %12
  br label %33

29:                                               ; preds = %12
  br label %30

30:                                               ; preds = %29
  %31 = load i8, i8* %2, align 1
  %32 = add i8 %31, 1
  store i8 %32, i8* %2, align 1
  br label %6

33:                                               ; preds = %28, %6
  store i8 0, i8* %2, align 1
  br label %34

34:                                               ; preds = %87, %33
  %35 = load i8, i8* %2, align 1
  %36 = sext i8 %35 to i32
  %37 = load i8, i8* %4, align 1
  %38 = sext i8 %37 to i32
  %39 = icmp slt i32 %36, %38
  br i1 %39, label %40, label %90

40:                                               ; preds = %34
  %41 = load i8, i8* %2, align 1
  %42 = sext i8 %41 to i64
  %43 = getelementptr inbounds [100 x i8], [100 x i8]* %5, i64 0, i64 %42
  %44 = load i8, i8* %43, align 1
  %45 = sext i8 %44 to i32
  %46 = icmp ne i32 %45, 32
  br i1 %46, label %47, label %53

47:                                               ; preds = %40
  %48 = load i8, i8* %2, align 1
  %49 = sext i8 %48 to i64
  %50 = getelementptr inbounds [100 x i8], [100 x i8]* %5, i64 0, i64 %49
  %51 = load i8, i8* %50, align 1
  %52 = call dereferenceable(272) %"class.std::basic_ostream"* @_ZStlsISt11char_traitsIcEERSt13basic_ostreamIcT_ES5_c(%"class.std::basic_ostream"* dereferenceable(272) @_ZSt4cout, i8 signext %51)
  br label %53

53:                                               ; preds = %47, %40
  %54 = load i8, i8* %2, align 1
  %55 = sext i8 %54 to i64
  %56 = getelementptr inbounds [100 x i8], [100 x i8]* %5, i64 0, i64 %55
  %57 = load i8, i8* %56, align 1
  %58 = sext i8 %57 to i32
  %59 = icmp eq i32 %58, 32
  br i1 %59, label %60, label %86

60:                                               ; preds = %53
  %61 = load i8, i8* %2, align 1
  %62 = sext i8 %61 to i32
  %63 = sub nsw i32 %62, 1
  %64 = sext i32 %63 to i64
  %65 = getelementptr inbounds [100 x i8], [100 x i8]* %5, i64 0, i64 %64
  %66 = load i8, i8* %65, align 1
  %67 = sext i8 %66 to i32
  %68 = icmp ne i32 %67, 32
  br i1 %68, label %69, label %75

69:                                               ; preds = %60
  %70 = load i8, i8* %2, align 1
  %71 = sext i8 %70 to i64
  %72 = getelementptr inbounds [100 x i8], [100 x i8]* %5, i64 0, i64 %71
  %73 = load i8, i8* %72, align 1
  %74 = call dereferenceable(272) %"class.std::basic_ostream"* @_ZStlsISt11char_traitsIcEERSt13basic_ostreamIcT_ES5_c(%"class.std::basic_ostream"* dereferenceable(272) @_ZSt4cout, i8 signext %73)
  br label %75

75:                                               ; preds = %69, %60
  %76 = load i8, i8* %2, align 1
  %77 = sext i8 %76 to i32
  %78 = sub nsw i32 %77, 1
  %79 = sext i32 %78 to i64
  %80 = getelementptr inbounds [100 x i8], [100 x i8]* %5, i64 0, i64 %79
  %81 = load i8, i8* %80, align 1
  %82 = sext i8 %81 to i32
  %83 = icmp eq i32 %82, 32
  br i1 %83, label %84, label %85

84:                                               ; preds = %75
  br label %87

85:                                               ; preds = %75
  br label %86

86:                                               ; preds = %85, %53
  br label %87

87:                                               ; preds = %86, %84
  %88 = load i8, i8* %2, align 1
  %89 = add i8 %88, 1
  store i8 %89, i8* %2, align 1
  br label %34

90:                                               ; preds = %34
  ret i32 0
}

declare dso_local i32 @_ZNSi3getEv(%"class.std::basic_istream"*) #1

declare dso_local dereferenceable(272) %"class.std::basic_ostream"* @_ZStlsISt11char_traitsIcEERSt13basic_ostreamIcT_ES5_c(%"class.std::basic_ostream"* dereferenceable(272), i8 signext) #1

; Function Attrs: noinline uwtable
define internal void @_GLOBAL__sub_I_14.cpp() #0 section ".text.startup" {
  call void @__cxx_global_var_init()
  ret void
}


!llvm.module.flags = !{!0}
!llvm.ident = !{!1}

!0 = !{i32 1, !"wchar_size", i32 4}
!1 = !{!"clang version 10.0.0-4ubuntu1 "}
